; Function Attrs: mustprogress nounwind uwtable
define dso_local void @_ZN5clang10installapi13DylibVerifier11visitGlobalERKN4llvm5MachO12GlobalRecordE(ptr noundef nonnull align 8 dereferenceable(4088) %0, ptr noundef nonnull align 8 dereferenceable(21) %1) unnamed_addr #0 align 2 {
  %3 = alloca %"class.std::allocator", align 1
  %4 = alloca %"struct.clang::installapi::DylibVerifier::SymbolContext", align 8
  %5 = alloca %"struct.llvm::MachO::SimpleSymbol", align 8
  call void @llvm.lifetime.start.p0(i64 1, ptr nonnull %3)
  call void @_ZNSaIcEC1Ev(ptr noundef nonnull align 1 dereferenceable(1) %3) #18
  %6 = call noundef ptr @_ZNSt7__cxx1112basic_stringIcSt11char_traitsIcESaIcEE13_M_local_dataEv(ptr noundef nonnull align 8 dereferenceable(50) %4) #18
  call void @_ZNSt7__cxx1112basic_stringIcSt11char_traitsIcESaIcEE12_Alloc_hiderC1EPcRKS3_(ptr noundef nonnull align 8 dereferenceable(50) %4, ptr noundef %6, ptr noundef nonnull align 1 dereferenceable(1) %3) #18
  %7 = call noundef ptr @_ZNSt7__cxx1112basic_stringIcSt11char_traitsIcESaIcEE13_M_local_dataEv(ptr noundef nonnull align 8 dereferenceable(50) %4) #18
  %8 = call noundef ptr @_ZNKSt7__cxx1112basic_stringIcSt11char_traitsIcESaIcEE7_M_dataEv(ptr noundef nonnull align 8 dereferenceable(50) %4) #18
  call void @_ZNSt7__cxx1112basic_stringIcSt11char_traitsIcESaIcEE13_S_copy_charsEPcPKcS7_(ptr noundef %8, ptr noundef nonnull @.str.23, ptr noundef nonnull @.str.23) #18
  call void @_ZNSt7__cxx1112basic_stringIcSt11char_traitsIcESaIcEE13_M_set_lengthEm(ptr noundef nonnull align 8 dereferenceable(50) %4, i64 noundef 0) #18
  call void @_ZNSaIcED1Ev(ptr noundef nonnull align 1 dereferenceable(1) %3) #18
  %9 = getelementptr inbounds nuw i8, ptr %4, i64 32
  store i8 0, ptr %9, align 8
  %10 = getelementptr inbounds nuw i8, ptr %4, i64 40
  store ptr null, ptr %10, align 8
  %11 = getelementptr inbounds nuw i8, ptr %4, i64 48
  store i8 0, ptr %11, align 8
  %12 = getelementptr inbounds nuw i8, ptr %4, i64 49
  store i8 0, ptr %12, align 1
  call void @llvm.lifetime.end.p0(i64 1, ptr nonnull %3)
  %.sroa.0.0.copyload.i = load ptr, ptr %1, align 8
  %.sroa.2.0..sroa_idx.i = getelementptr inbounds nuw i8, ptr %1, i64 8
  %.sroa.2.0.copyload.i = load i64, ptr %.sroa.2.0..sroa_idx.i, align 8
  call void @_ZN4llvm5MachO11parseSymbolENS_9StringRefE(ptr dead_on_unwind nonnull writable sret(%"struct.llvm::MachO::SimpleSymbol") align 8 %5, ptr %.sroa.0.0.copyload.i, i64 %.sroa.2.0.copyload.i) #18
  %13 = load ptr, ptr %5, align 8
  %14 = getelementptr inbounds nuw i8, ptr %5, i64 8
  %15 = load i64, ptr %14, align 8
  %16 = call noundef nonnull align 8 dereferenceable(32) ptr @_ZNSt7__cxx1112basic_stringIcSt11char_traitsIcESaIcEE6assignEPKcm(ptr noundef nonnull align 8 dereferenceable(32) %4, ptr noundef %13, i64 noundef %15) #18
  %17 = getelementptr inbounds nuw i8, ptr %5, i64 16
  %18 = load i8, ptr %17, align 8
  store i8 %18, ptr %9, align 8
  call void @_ZN5clang10installapi13DylibVerifier18visitSymbolInDylibERKN4llvm5MachO6RecordERNS1_13SymbolContextE(ptr noundef nonnull align 8 dereferenceable(4088) %0, ptr noundef nonnull align 8 dereferenceable(19) %1, ptr noundef nonnull align 8 dereferenceable(50) %4)
  call void @_ZNSt7__cxx1112basic_stringIcSt11char_traitsIcESaIcEED1Ev(ptr noundef nonnull align 8 dereferenceable(50) %4) #18
  ret void
}